target datalayout = "e-m:e-p270:32:32-p271:32:32-p272:64:64-i64:64-i128:128-f80:128-n8:16:32:64-S128"
target triple = "x86_64-pc-linux-gnu"

%"class.std::__cxx11::basic_string" = type { %"struct.std::__cxx11::basic_string<char>::_Alloc_hider", i64, %union.anon.67 }
%"struct.std::__cxx11::basic_string<char>::_Alloc_hider" = type { ptr }
%union.anon.67 = type { i64, [8 x i8] }
%"class.pxrInternal_v0_24__pxrReserved__::ArResolvedPath" = type { %"class.std::__cxx11::basic_string" }

; Function Attrs: mustprogress nounwind uwtable
define linkonce_odr noundef zeroext i1 @_ZNK32pxrInternal_v0_24__pxrReserved__14ArResolvedPath7IsEmptyEv(ptr noundef nonnull align 8 dereferenceable(32) %0) #5 comdat align 2 {
  %2 = alloca ptr, align 8
  store ptr %0, ptr %2, align 8
  %3 = load ptr, ptr %2, align 8
  %4 = getelementptr inbounds nuw %"class.pxrInternal_v0_24__pxrReserved__::ArResolvedPath", ptr %3, i32 0, i32 0
  %5 = call noundef zeroext i1 @_ZNKSt7__cxx1112basic_stringIcSt11char_traitsIcESaIcEE5emptyEv(ptr noundef nonnull align 8 dereferenceable(32) %4) #3
  ret i1 %5
}

; Function Attrs: mustprogress nounwind uwtable
define linkonce_odr void @_ZN32pxrInternal_v0_24__pxrReserved__14ArResolvedPathD2Ev(ptr noundef nonnull align 8 dereferenceable(32) %0) unnamed_addr #5 comdat align 2 {
  %2 = alloca ptr, align 8
  store ptr %0, ptr %2, align 8
  %3 = load ptr, ptr %2, align 8
  %4 = getelementptr inbounds nuw %"class.pxrInternal_v0_24__pxrReserved__::ArResolvedPath", ptr %3, i32 0, i32 0
  call void @_ZNSt7__cxx1112basic_stringIcSt11char_traitsIcESaIcEED1Ev(ptr noundef nonnull align 8 dereferenceable(32) %4) #3
  ret void
}

; Function Attrs: mustprogress uwtable
define linkonce_odr noundef zeroext i1 @_ZNK32pxrInternal_v0_24__pxrReserved__14ArResolvedPath5emptyEv(ptr noundef nonnull align 8 dereferenceable(32) %0) #4 comdat align 2 {
  %2 = alloca ptr, align 8
  store ptr %0, ptr %2, align 8
  %3 = load ptr, ptr %2, align 8
  %4 = call noundef zeroext i1 @_ZNK32pxrInternal_v0_24__pxrReserved__14ArResolvedPath7IsEmptyEv(ptr noundef nonnull align 8 dereferenceable(32) %3)
  ret i1 %4
}

; Function Attrs: mustprogress uwtable
define noundef zeroext i1 @_ZN32pxrInternal_v0_24__pxrReserved__8SdfLayer6ImportERKNSt7__cxx1112basic_stringIcSt11char_traitsIcESaIcEEE(ptr noundef nonnull align 8 dereferenceable(557) %0, ptr noundef nonnull align 8 dereferenceable(32) %1) #4 align 2 personality ptr @__gxx_personality_v0 {
  %3 = alloca i1, align 1
  %4 = alloca ptr, align 8
  %5 = alloca ptr, align 8
  %6 = alloca %"class.pxrInternal_v0_24__pxrReserved__::ArResolvedPath", align 8
  %7 = alloca ptr, align 8
  %8 = alloca i32, align 4
  %9 = alloca i32, align 4
  store ptr %0, ptr %4, align 8
  store ptr %1, ptr %5, align 8
  %10 = load ptr, ptr %4, align 8
  %11 = load ptr, ptr %5, align 8
  call void @_ZN32pxrInternal_v0_24__pxrReserved__15Sdf_ResolvePathERKNSt7__cxx1112basic_stringIcSt11char_traitsIcESaIcEEEPNS_11ArAssetInfoE(ptr dead_on_unwind writable sret(%"class.pxrInternal_v0_24__pxrReserved__::ArResolvedPath") align 8 %6, ptr noundef nonnull align 8 dereferenceable(32) %11, ptr noundef null)
  %12 = invoke noundef zeroext i1 @_ZNK32pxrInternal_v0_24__pxrReserved__14ArResolvedPath5emptyEv(ptr noundef nonnull align 8 dereferenceable(32) %6)
          to label %13 unwind label %15

13:                                               ; preds = %2
  br i1 %12, label %14, label %19

14:                                               ; preds = %13
  store i1 false, ptr %3, align 1
  store i32 1, ptr %9, align 4
  br label %23

15:                                               ; preds = %19, %2
  %16 = landingpad { ptr, i32 }
          cleanup
  %17 = extractvalue { ptr, i32 } %16, 0
  store ptr %17, ptr %7, align 8
  %18 = extractvalue { ptr, i32 } %16, 1
  store i32 %18, ptr %8, align 4
  call void @_ZN32pxrInternal_v0_24__pxrReserved__14ArResolvedPathD2Ev(ptr noundef nonnull align 8 dereferenceable(32) %6) #3
  br label %25

19:                                               ; preds = %13
  %20 = load ptr, ptr %5, align 8
  %21 = invoke noundef zeroext i1 @_ZN32pxrInternal_v0_24__pxrReserved__8SdfLayer5_ReadERKNSt7__cxx1112basic_stringIcSt11char_traitsIcESaIcEEERKNS_14ArResolvedPathEb(ptr noundef nonnull align 8 dereferenceable(557) %10, ptr noundef nonnull align 8 dereferenceable(32) %20, ptr noundef nonnull align 8 dereferenceable(32) %6, i1 noundef zeroext false)
          to label %22 unwind label %15

22:                                               ; preds = %19
  store i1 %21, ptr %3, align 1
  store i32 1, ptr %9, align 4
  br label %23

23:                                               ; preds = %22, %14
  call void @_ZN32pxrInternal_v0_24__pxrReserved__14ArResolvedPathD2Ev(ptr noundef nonnull align 8 dereferenceable(32) %6) #3
  %24 = load i1, ptr %3, align 1
  ret i1 %24

25:                                               ; preds = %15
  %26 = load ptr, ptr %7, align 8
  %27 = load i32, ptr %8, align 4
  %28 = insertvalue { ptr, i32 } poison, ptr %26, 0
  %29 = insertvalue { ptr, i32 } %28, i32 %27, 1
  resume { ptr, i32 } %29
}