; Function Attrs: mustprogress uwtable
define noundef zeroext i1 @_ZN32pxrInternal_v0_24__pxrReserved__8SdfLayer6ImportERKNSt7__cxx1112basic_stringIcSt11char_traitsIcESaIcEEE(ptr noundef nonnull align 8 dereferenceable(557) %0, ptr noundef nonnull align 8 dereferenceable(32) %1) local_unnamed_addr #3 align 2 personality ptr @__gxx_personality_v0 {
  %3 = alloca %"class.pxrInternal_v0_24__pxrReserved__::ArResolvedPath", align 8
  call void @_ZN32pxrInternal_v0_24__pxrReserved__15Sdf_ResolvePathERKNSt7__cxx1112basic_stringIcSt11char_traitsIcESaIcEEEPNS_11ArAssetInfoE(ptr dead_on_unwind nonnull writable sret(%"class.pxrInternal_v0_24__pxrReserved__::ArResolvedPath") align 8 %3, ptr noundef nonnull align 8 dereferenceable(32) %1, ptr noundef null)
  %4 = call noundef zeroext i1 @_ZNKSt7__cxx1112basic_stringIcSt11char_traitsIcESaIcEE5emptyEv(ptr noundef nonnull align 8 dereferenceable(32) %3) #33
  br i1 %4, label %9, label %7

5:                                                ; preds = %7
  %6 = landingpad { ptr, i32 }
          cleanup
  call void @_ZNSt7__cxx1112basic_stringIcSt11char_traitsIcESaIcEED1Ev(ptr noundef nonnull align 8 dereferenceable(32) %3) #33
  resume { ptr, i32 } %6

7:                                                ; preds = %2
  %8 = invoke noundef zeroext i1 @_ZN32pxrInternal_v0_24__pxrReserved__8SdfLayer5_ReadERKNSt7__cxx1112basic_stringIcSt11char_traitsIcESaIcEEERKNS_14ArResolvedPathEb(ptr noundef nonnull align 8 dereferenceable(557) %0, ptr noundef nonnull align 8 dereferenceable(32) %1, ptr noundef nonnull align 8 dereferenceable(32) %3, i1 noundef zeroext false)
          to label %9 unwind label %5

9:                                                ; preds = %7, %2
  %.0 = phi i1 [ false, %2 ], [ %8, %7 ]
  call void @_ZNSt7__cxx1112basic_stringIcSt11char_traitsIcESaIcEED1Ev(ptr noundef nonnull align 8 dereferenceable(32) %3) #33
  ret i1 %.0
}